; Function Attrs: mustprogress nofree norecurse nosync nounwind willreturn memory(argmem: read) uwtable
define hidden noundef zeroext i1 @_ZNK19OpenColorIO_v2_4dev9CDLOpData10isClampingEv(ptr nocapture noundef nonnull readonly align 8 dereferenceable(256) %this) local_unnamed_addr #8 align 2 {
entry:
  %m_style.i = getelementptr inbounds i8, ptr %this, i64 168
  %0 = load i32, ptr %m_style.i, align 8
  %1 = icmp ult i32 %0, 4
  %switch.cast = trunc i32 %0 to i4
  %switch.downshift = lshr i4 3, %switch.cast
  %2 = and i4 %switch.downshift, 1
  %switch.masked = icmp ne i4 %2, 0
  %retval.0 = select i1 %1, i1 %switch.masked, i1 false
  ret i1 %retval.0
}